(dp0
S'Butterflies'
p1
I3
sS'all'
p2
I1
sS'evidence'
p3
I2
sS'caused'
p4
I1
sS'theoretical'
p5
I1
sS'emerging'
p6
I1
sS'month'
p7
I1
sS'protest'
p8
I1
sS'browsers'
p9
I1
sS'ga'
p10
I1
sS'hanging'
p11
I1
sS'Department'
p12
I1
sS'15'
p13
I1
sS'Today'
p14
I1
sS'YouTube'
p15
I1
sS'utagsearchKeyword'
p16
I1
sS'Guide'
p17
I1
sS'Business'
p18
I2
sS'icons'
p19
I2
sS'young'
p20
I1
sS'Entrepreneurship'
p21
I2
sS'\xd8\xa7\xd9\x88'
p22
I1
sS'0'
p23
I10
sS'program'
p24
I1
sS'Kirundi'
p25
I1
sS'Words'
p26
I6
sS'under'
p27
I1
sS'Plague'
p28
I3
sS'Nov'
p29
I2
sS'must'
p30
I1
sS'Eat'
p31
I1
sS'Explosives'
p32
I3
sS'taste'
p33
I1
sS'grvoanewscom'
p34
I1
sS'butterfliesquot'
p35
I1
sS'utagsearchKeywordTealiumTagSearchKeyword'
p36
I1
sS'Angus'
p37
I1
sS'ifutagsearchKeywordnull'
p38
I1
sS'gaqpushnetsetAccount'
p39
I1
sS'verb'
p40
I2
sS'difference'
p41
I1
sS'Athletes'
p42
I3
sS'Motorbikes'
p43
I1
sS'Jersey'
p44
I1
sS'1700'
p45
I1
sS'Family'
p46
I1
sS'Just'
p47
I1
sS'Evans'
p48
I1
sS'list'
p49
I1
sS'Killed'
p50
I1
sS'travels'
p51
I1
sS'Zeriamerikescom'
p52
I1
sS'Does'
p53
I4
sS'Kill'
p54
I3
sS'red'
p55
I1
sS'RSS'
p56
I1
sS'Go'
p57
I1
sS'businesses'
p58
I1
sS'containerSelector'
p59
I3
sS'Debate'
p60
I1
sS'EnglishpagetypeSectionpagenameLearning'
p61
I1
sS'358p'
p62
I1
sS'population'
p63
I2
sS'says'
p64
I7
sS'phones'
p65
I1
sS'\xe7\xb2\xb5\xe8\xaa\x9e'
p66
I1
sS'Should'
p67
I1
sS'hrefhttps3A2F2Fwwwfacebookcom2FvoalearningenglishnameFacebooktypelinkbutton'
p68
I1
sS'State'
p69
I1
sS'video'
p70
I1
sS'quotDo'
p71
I1
sS'utagdatasearchkeywordnull'
p72
I1
sS'download'
p73
I3
sS'disputed'
p74
I1
sS'East'
p75
I2
sS'click'
p76
I1
sS'creatures'
p77
I1
sS'universities'
p78
I1
sS'what'
p79
I2
sS'Latin'
p80
I1
sS'voaswahilicom'
p81
I1
sS'organisms'
p82
I1
sS'section'
p83
I1
sS'disease'
p84
I2
sS'\xe0\xb9\x84\xe0\xb8\x97\xe0\xb8\xa2'
p85
I1
sS'debate'
p86
I1
sS'Man39s'
p87
I1
sS'Wrong'
p88
I1
sS'version'
p89
I3
sS'Hear'
p90
I1
sS'causes'
p91
I2
sS'Safari'
p92
I1
sS'Robotic'
p93
I1
sS'new'
p94
I3
sS'Along'
p95
I1
sS'America'
p96
I10
sS'Tibetan'
p97
I1
sS'GACampaign'
p98
I3
sS'supporting'
p99
I1
sS'Studied'
p100
I2
sS'women\xe2\x80\x99s'
p101
I1
sS'communicate'
p102
I1
sS'Professor'
p103
I1
sS'even'
p104
I1
sS'giant'
p105
I1
sS'Labeling'
p106
I1
sS'water'
p107
I1
sS'met'
p108
I1
sS'Contact'
p109
I1
sS'English'
p110
I34
sS'gatype'
p111
I1
sS'small'
p112
I1
sS'great'
p113
I1
sS'biodiversity'
p114
I1
sS'UA206610411'
p115
I1
sS'Clark'
p116
I2
sS'environment'
p117
I1
sS'study'
p118
I3
sS'36'
p119
I1
sS'experience'
p120
I1
sS'Your'
p121
I2
sS'products'
p122
I2
sS'Big'
p123
I1
sS'Home'
p124
I1
sS'Technology'
p125
I3
sS'helps'
p126
I1
sS'examining'
p127
I2
sS'named'
p128
I1
sS'love'
p129
I1
sS'Constitution'
p130
I1
sS'Kurdi'
p131
I1
sS'virtualKeyboardLanguage'
p132
I1
sS'\xed\x95\x9c\xea\xb5\xad\xec\x96\xb4'
p133
I1
sS'Top'
p134
I4
sS'Multimedia'
p135
I1
sS'When'
p136
I1
sS'vijestiglasaamerikecom'
p137
I1
sS'brought'
p138
I1
sS'renderTealium'
p139
I2
sS'Book'
p140
I1
sS'Health'
p141
I5
sS'Too'
p142
I3
sS'Adobes'
p143
I2
sS'TALK2US'
p144
I7
sS'Answer'
p145
I1
sS'actress'
p146
I1
sS'httplivetrackervoanewseucounterltPageType4RecordId3037016SiteId428r1299871713it0pd20151104202000url'
p147
I1
sS'39Putting'
p148
I1
sS'carousel18009tinycarousel'
p149
I1
sS'Europe'
p150
I1
sS'Broadcast'
p151
I3
sS'use'
p152
I4
sS'284px'
p153
I1
sS'from'
p154
I4
sS'Explorer'
p155
I2
sS'would'
p156
I1
sS'sparentNodeinsertBeforega'
p157
I1
sS'until'
p158
I1
sS'La'
p159
I1
sS'two'
p160
I1
sS'Admitting'
p161
I1
sS'next'
p162
I2
sS'Federal'
p163
I1
sS'Calls'
p164
I3
sS'praised'
p165
I1
sS'Awards'
p166
I1
sS'Nino'
p167
I3
sS'https'
p168
I1
sS'recommend'
p169
I1
sS'Arquette'
p170
I1
sS'gaqpushnettrackPageview'
p171
I1
sS'Removed'
p172
I1
sS'tell'
p173
I1
sS'Mosaic'
p174
I4
sS'more'
p175
I4
sS'LinkedIn'
p176
I1
sS'JavaScript'
p177
I2
sS'said'
p178
I2
sS'Mean'
p179
I3
sS'El'
p180
I3
sS'Opera'
p181
I1
sS'equity'
p182
I1
sS'Wednesday'
p183
I1
sS'award'
p184
I2
sS'phone'
p185
I2
sS'American'
p186
I11
sS'Facebook'
p187
I1
sS'adult'
p188
I1
sS'\xe2\x80\x9cconserve'
p189
I1
sS'Strongest'
p190
I1
sS'Snakes'
p191
I1
sS'organizations'
p192
I1
sS'language'
p193
I1
sS'5000'
p194
I1
sS'player'
p195
I2
sS'Viewed'
p196
I1
sS'work'
p197
I2
sS'textjavascript'
p198
I1
sS'worth'
p199
I1
sS'Down'
p200
I2
sS'left'
p201
I1
sS'Cats'
p202
I1
sS'Video'
p203
I17
sS'can'
p204
I2
sS'learn'
p205
I2
sS'Our'
p206
I3
sS'268p'
p207
I1
sS'Children'
p208
I3
sS'history'
p209
I1
sS'beautiful'
p210
I1
sS'Israeli'
p211
I4
sS'amerikaninsesicom'
p212
I1
sS'voachinesecom'
p213
I1
sS'Chrome'
p214
I1
sS'Englishspeaking'
p215
I1
sS'CustomVariables'
p216
I1
sS'boycott'
p217
I1
sS'high'
p218
I1
sS'Liberation'
p219
I1
sS'voaafaanoromoocom'
p220
I1
sS'Score'
p221
I1
sS'MODALLINKSREGEXP'
p222
I1
sS'Caty'
p223
I1
sS'Thompson'
p224
I1
sS'phrase'
p225
I1
sS'airplane'
p226
I2
sS'Cause'
p227
I1
sS'Banana'
p228
I5
sS'Prize'
p229
I2
sS'ceremony'
p230
I1
sS'information'
p231
I2
sS'Terms'
p232
I1
sS'verbs'
p233
I2
sS'\xe1\x9e\x81\xe1\x9f\x92\xe1\x9e\x98\xe1\x9f\x82\xe1\x9e\x9a'
p234
I1
sS'provide'
p235
I1
sS'Beach'
p236
I1
sS'Conservation'
p237
I1
sS'Level'
p238
I3
sS'damage'
p239
I1
sS'Maritime'
p240
I1
sS'voashonacom'
p241
I1
sS'chemical'
p242
I1
sS'how'
p243
I3
sS'voaportuguescom'
p244
I1
sS'Jack'
p245
I4
sS'pubMonth'
p246
I3
sS'What39s'
p247
I1
sS'aggressive'
p248
I2
sS'functionabcd'
p249
I1
sS'Teen'
p250
I1
sS'Lower'
p251
I1
sS'Vehicles'
p252
I1
sS'\xd8\xb1\xd9\x8a\xda\x89\xdb\x8c\xd9\x88'
p253
I1
sS'earlier'
p254
I2
sS'Matteo'
p255
I2
sS'different'
p256
I1
sS'entrepreneurship'
p257
I1
sS'lavoixdelameriquecom'
p258
I1
sS'designed'
p259
I1
sS'date'
p260
I1
sS'president'
p261
I2
sS'man'
p262
I1
sS'All'
p263
I3
sS'Everyone'
p264
I1
sS'noun'
p265
I4
sS'Bananas'
p266
I1
sS'lost'
p267
I1
sS'Kinyarwanda'
p268
I1
sS'One'
p269
I9
sS'voabanglacom'
p270
I1
sS'Middle'
p271
I1
sS'chief'
p272
I1
sS'Weather'
p273
I1
sS'Another'
p274
I1
sS'pay'
p275
I1
sS'Ti\xe1\xba\xbfng'
p276
I1
sS'phrasal'
p277
I2
sS'increase'
p278
I1
sS'athletes'
p279
I2
sS'playing'
p280
I1
sS'wind'
p281
I1
sS'nearly'
p282
I2
sS'Gonzalez'
p283
I1
sS'senators'
p284
I1
sS'What'
p285
I5
sS'Who'
p286
I1
sS'help'
p287
I3
sS'displayed'
p288
I1
sS'Giant'
p289
I1
sS'years'
p290
I2
sS'held'
p291
I1
sS'isDesign'
p292
I1
sS'scientist'
p293
I1
sS'nbsp'
p294
I78
sS'signs'
p295
I1
sS'turbine'
p296
I1
sS'Killing'
p297
I1
sS'its'
p298
I2
sS'gaqpushsetDomainName'
p299
I1
sS'perfect'
p300
I1
sS'1'
p301
I7
sS'Hit'
p302
I1
sS'21'
p303
I1
sS'Start'
p304
I1
sS'amharicvoanewscom'
p305
I1
sS'terrorists'
p306
I1
sS'11042015'
p307
I1
sS'gaqpushsetAccount'
p308
I1
sS'Plane'
p309
I2
sS'Effects'
p310
I1
sS'2015'
p311
I7
sS'World'
p312
I3
sS'Podcast'
p313
I1
sS'easier'
p314
I1
sS'Raising'
p315
I1
sS'colleague'
p316
I1
sS'Celtic'
p317
I1
sS'good'
p318
I1
sS'Grammar'
p319
I10
sS'Stapleton'
p320
I1
sS'food'
p321
I1
sS'dengeamerikacom'
p322
I1
sS'practice'
p323
I1
sS'talk'
p324
I1
sS'Can'
p325
I2
sS'Mother'
p326
I1
sS'own'
p327
I1
sS'Works'
p328
I3
sS'killed'
p329
I3
sS'Products'
p330
I1
sS'meat'
p331
I2
sS'pubDay'
p332
I3
sS'university'
p333
I1
sS'labeling'
p334
I1
sS'Israel'
p335
I1
sS'weather'
p336
I1
sS'Skype'
p337
I1
sS'found'
p338
I2
sS'UA152600351'
p339
I1
sS'Hate'
p340
I1
sS'\xe1\x8a\xa0\xe1\x88\x9b\xe1\x88\xad\xe1\x8a\x9b'
p341
I1
sS'en'
p342
I1
sS'another'
p343
I1
sS'voalearningenglish'
p344
I1
sS'fish'
p345
I1
sS'Winner'
p346
I2
sS'Next'
p347
I1
sS'Live'
p348
I2
sS'Which'
p349
I4
sS'Azerbaijani'
p350
I1
sS'our'
p351
I2
sS'amerikaninsesiorg'
p352
I1
sS'voandebelecom'
p353
I1
sS'out'
p354
I4
sS'googleanalyticscomgajs'
p355
I1
sS'Satellite'
p356
I1
sS'won'
p357
I1
sS'Very'
p358
I2
sS'motel'
p359
I1
sS'research'
p360
I2
sS'Vi\xe1\xbb\x87t'
p361
I1
sS'Tapeworm'
p362
I1
sS'China'
p363
I2
sS'IFrame'
p364
I1
sS'homepageshortheadlineLearning'
p365
I1
sS'\xd5\x80\xd5\xa1\xd5\xb5\xd5\xa5\xd6\x80\xd5\xa5\xd5\xb6'
p366
I1
sS'issue'
p367
I1
sS'Medical'
p368
I2
sS'Jon'
p369
I1
sS'voatiengvietcom'
p370
I1
sS'Marsquot'
p371
I1
sS'20nbsp'
p372
I1
sS'Older'
p373
I3
sS'httplivetrackervoanewseucounterltPageType4RecordId3057641SiteId428r693443922it0pd20151114001800url'
p374
I1
sS'University'
p375
I2
sS'Indonesia'
p376
I1
sS'Spent'
p377
I2
sS'free'
p378
I3
sS'like'
p379
I1
sS'admits'
p380
I1
sS'Stewart\xe2\x80\x99s'
p381
I1
sS'reason'
p382
I1
sS'308px'
p383
I1
sS'gaqpushtrackPageview'
p384
I1
sS'Security'
p385
I2
sS'Researchers'
p386
I1
sS'Reefs'
p387
I1
sS'ltr'
p388
I2
sS'womenled'
p389
I1
sS'Videos'
p390
I1
sS'People'
p391
I3
sS'voanouvelcom'
p392
I1
sS'Money'
p393
I2
sS'Topics'
p394
I1
sS'atagstiqcdncomutagbbgvoapangeaprodutagjs'
p395
I1
sS'moment'
p396
I1
sS'Panda'
p397
I1
sS'turn'
p398
I1
sS'footsteps'
p399
I1
sS'first'
p400
I1
sS'major'
p401
I1
sS'features'
p402
I1
sS'student'
p403
I3
sS'attractions'
p404
I1
sS'experts'
p405
I1
sS'Asia'
p406
I3
sS'one'
p407
I1
sS'Kelly'
p408
I3
sS'Pronunciation'
p409
I1
sS'Black'
p410
I1
sS'hrefhttp3A2F2Fwwwyoutubecom2Fuser2FvoalearningenglishtargetblankcssClassshwicoyoutubenameYoutubetypelinkbutton'
p411
I1
sS'Portugu\xc3\xaas'
p412
I1
sS'Hollywood'
p413
I4
sS'11142015'
p414
I1
sS'\xe0\xbd\x96\xe0\xbd\xbc\xe0\xbd\x91\xe0\xbc\x8b\xe0\xbd\xa1\xe0\xbd\xb2\xe0\xbd\x82'
p415
I1
sS'Tests'
p416
I4
sS'ancient'
p417
I2
sS'North'
p418
I1
sS'service'
p419
I1
sS'Eastern'
p420
I1
sS'interviews'
p421
I1
sS'hrefhttp3A2F2Flearningenglishvoanewscom2Fmedia2Fall2Ftalk2us2Flatesthtml3Fz3D3662targetcssClassshwicoskypenametypetwitterpopup'
p422
I1
sS'Srpski'
p423
I1
sS'attack'
p424
I1
sS'athletics'
p425
I1
sS'Talk2US'
p426
I1
sS'Shqip'
p427
I1
sS'Comeback'
p428
I1
sS'white'
p429
I3
sS'gasrc'
p430
I1
sS'showAlternateContentOnNoSource'
p431
I3
sS'EnglishshortlanguageserviceLEARNpropertyid200platformDesktopplatformshortDrunsjsYespagetitleVoice'
p432
I1
sS'Language'
p433
I1
sS'SCHEDULE'
p434
I1
sS'Trades'
p435
I3
sS'Companies'
p436
I1
sS'learningenglishvoanewscom'
p437
I1
sS'Patricia'
p438
I1
sS'short'
p439
I1
sS'utagdatasearchkeywordutagsearchKeywordifutagfromnull'
p440
I1
sS'oxybenzone'
p441
I1
sS'Could'
p442
I1
sS'off'
p443
I2
sS'Zoo'
p444
I1
sS'than'
p445
I3
sS'Road'
p446
I2
sS'Hausa'
p447
I1
sS'11'
p448
I3
sS'10'
p449
I3
sS'12'
p450
I1
sS'Love'
p451
I1
sS'14'
p452
I2
sS'17'
p453
I2
sS'16'
p454
I1
sS'18'
p455
I2
sS'Up39'
p456
I1
sS'panda'
p457
I1
sS'documentgetElementsByTagNamescript0'
p458
I1
sS'month\xe2\x80\x99s'
p459
I1
sS'Sea'
p460
I2
sS'were'
p461
I1
sS'voaindonesiacom'
p462
I1
sS'\xe0\xba\xa5\xe0\xba\xb2\xe0\xba\xa7'
p463
I1
sS'Click'
p464
I2
sS'chastimecom'
p465
I1
sS'browser'
p466
I1
sS'coral\xe2\x80\x99s'
p467
I1
sS'hotspots'
p468
I1
sS'720p'
p469
I2
sS'false'
p470
I3
sS'Dying'
p471
I2
sS'Pay'
p472
I3
sS'laovoanewscom'
p473
I1
sS'turned'
p474
I2
sS'darivoacom'
p475
I1
sS'Submit'
p476
I1
sS'Weaver'
p477
I1
sS'talking'
p478
I1
sS'say'
p479
I3
sS'Verbs'
p480
I4
sS'Call'
p481
I1
sS'amerikayidzayncom'
p482
I1
sS'principle'
p483
I1
sS'DNA'
p484
I1
sS'VOA39s'
p485
I1
sS'she'
p486
I1
sS'Fran\xc3\xa7ais'
p487
I1
sS'Europe\xe2\x80\x99s'
p488
I2
sS'Rice'
p489
I2
sS'Asians'
p490
I1
sS'Power'
p491
I2
sS'Player'
p492
I2
sS'trip'
p493
I2
sS'Resources'
p494
I1
sS'After'
p495
I1
sS'ideas'
p496
I1
sS'Dialogue'
p497
I1
sS'lit'
p498
I1
sS'also'
p499
I2
sS'causing'
p500
I1
sS'\xce\x95\xce\xbb\xce\xbb\xce\xb7\xce\xbd\xce\xb9\xce\xba\xce\xac'
p501
I1
sS'golosamerikiru'
p502
I1
sS'play'
p503
I1
sS'printer'
p504
I2
sS'abgetElementsByTagNamec0aparentNodeinsertBeforeda'
p505
I1
sS'Meat'
p506
I1
sS'Attacks'
p507
I1
sS'could'
p508
I2
sS'who'
p509
I2
sS'crash'
p510
I1
sS'most'
p511
I2
sS'exoskeletons'
p512
I1
sS'detect'
p513
I1
sS'Photos'
p514
I1
sS'stormed'
p515
I1
sS'pager'
p516
I1
sS'T\xc3\xbcrk\xc3\xa7e'
p517
I1
sS'million'
p518
I1
sS'episode'
p519
I2
sS'Expedition'
p520
I1
sS'Egypt'
p521
I3
sS'\xe0\xa6\xac\xe0\xa6\xbe\xe0\xa6\x82\xe0\xa6\xb2\xe0\xa6\xbe'
p522
I1
sS'medical'
p523
I1
sS'EU'
p524
I1
sS'quotA'
p525
I1
sS'face'
p526
I2
sS'amerikiskhmacom'
p527
I1
sS'gaqpushnetsetDomainName'
p528
I1
sS'Missouri\xe2\x80\x99s'
p529
I1
sS'latest'
p530
I2
sS'Extrovert'
p531
I4
sS'Ndebele'
p532
I1
sS'saying'
p533
I1
sS'Opposes'
p534
I1
sS'Trending'
p535
I1
sS'solar'
p536
I1
sS'Paris'
p537
I5
sS'Flash'
p538
I4
sS'270p'
p539
I2
sS'discovered'
p540
I2
sS'Ancient'
p541
I1
sS'\xe1\x83\xa5\xe1\x83\x90\xe1\x83\xa0\xe1\x83\x97\xe1\x83\xa3\xe1\x83\x9a\xe1\x83\x98'
p542
I1
sS'Palestine'
p543
I1
sS'homepageheadlineLearning'
p544
I1
sS'Waste'
p545
I1
sS'find'
p546
I1
sS'Anna'
p547
I2
sS'Wants'
p548
I1
sS'We'
p549
I1
sS'upgrade'
p550
I1
sS'layout'
p551
I2
sS'menu'
p552
I1
sS'typeofTealiumTagSearchKeywordfunction'
p553
I1
sS'documentreadyfunction'
p554
I2
sS'French'
p555
I3
sS'40MB'
p556
I2
sS'utagdatafromTealiumTagFrom'
p557
I1
sS'Part'
p558
I3
sS'black'
p559
I1
sS'money'
p560
I1
sS'Services'
p561
I1
sS'Route66VOA'
p562
I1
sS'watching'
p563
I1
sS'History'
p564
I2
sS'hope'
p565
I1
sS'Marseillaise'
p566
I1
sS'do'
p567
I3
sS'Havana'
p568
I2
sS'get'
p569
I3
sS'voatibetancom'
p570
I1
sS'capital'
p571
I1
sS'She'
p572
I3
sS'documentcreateElementscript'
p573
I1
sS'Code'
p574
I1
sS'Stories'
p575
I8
sS'glasamerikenet'
p576
I1
sS'words'
p577
I2
sS'international'
p578
I1
sS'Popular'
p579
I1
sS'during'
p580
I1
sS'Palestinians'
p581
I1
sS'enjoys'
p582
I1
sS'1400'
p583
I1
sS'voahausacom'
p584
I1
sS'Help'
p585
I3
sS'showAlternateContentOnError'
p586
I3
sS'countries'
p587
I1
sS'Whites'
p588
I1
sS'Rise'
p589
I2
sS'nutritious'
p590
I1
sS'Sunday'
p591
I1
sS'across'
p592
I1
sS'Ashley'
p593
I1
sS'bad'
p594
I1
sS'Experts'
p595
I2
sS'architecture'
p596
I1
sS'voanewscom'
p597
I3
sS'Protein'
p598
I5
sS'Education'
p599
I4
sS'See'
p600
I1
sS'remains'
p601
I1
sS'219px'
p602
I1
sS'requirement'
p603
I1
sS'concert'
p604
I1
sS'creator'
p605
I1
sS'job'
p606
I1
sS'National'
p607
I1
sS'Question'
p608
I1
sS'Trek'
p609
I1
sS'around'
p610
I1
sS'Russia\xe2\x80\x99s'
p611
I1
sS'\xe2\x87\xb1'
p612
I3
sS'\xd9\x83\xd9\x88\xd8\xb1\xd8\xaf\xdb\x8c'
p613
I1
sS'computer'
p614
I1
sS'voacantonesecom'
p615
I1
sS'us'
p616
I2
sS'sea'
p617
I1
sS'Android'
p618
I1
sS'utagdataentityVOAlanguageEnglishlanguageserviceVOA'
p619
I1
sS'best'
p620
I2
sS'seems'
p621
I1
sS'Worldwide'
p622
I1
sS'voathaicom'
p623
I1
sS'html5MediaPlayer'
p624
I3
sS'Cabrera'
p625
I1
sS'04'
p626
I1
sS'ways'
p627
I1
sS'amerikaovozicom'
p628
I1
sS'Featured'
p629
I1
sS'CMA'
p630
I1
sS'StudentBuilt'
p631
I1
sS'Water'
p632
I3
sS'3'
p633
I3
sS'score'
p634
I1
sS'hrefhttp3A2F2Flearningenglishvoanewscom2Fpodcast2F0htmltargetcssClassshwicopangeapodcastnametypelinkbutton'
p635
I1
sS'understood'
p636
I1
sS'electric'
p637
I1
sS'conditions'
p638
I1
sS'Than'
p639
I3
sS'Minute'
p640
I9
sS'Subscription'
p641
I1
sS'affordable'
p642
I1
sS'voacambodiacom'
p643
I1
sS'we'
p644
I4
sS'Central'
p645
I2
sS'\xd8\xaf\xd8\xb1\xdb\x8c'
p646
I1
sS'Study'
p647
I3
sS'agencies'
p648
I1
sS'Edgar'
p649
I2
sS'Burmese'
p650
I1
sS'hurts'
p651
I1
sS'DomainSpecification'
p652
I1
sS'Streamer'
p653
I2
sS'Refugees'
p654
I1
sS'Privacy'
p655
I1
sS'Eurasia'
p656
I1
sS'Settlement'
p657
I1
sS'Firefox'
p658
I1
sS'many'
p659
I2
sS'taking'
p660
I1
sS'Worms'
p661
I1
sS'Rules'
p662
I2
sS'Explore'
p663
I1
sS'games'
p664
I1
sS'60MB'
p665
I1
sS'preposition'
p666
I1
sS'Bubonic'
p667
I3
sS'Syrian'
p668
I1
sS'Everyday'
p669
I8
sS'War39'
p670
I1
sS'among'
p671
I1
sS'UTCnbsp'
p672
I1
sS'gaqpushsetAllowLinker'
p673
I1
sS'Questionnbsp'
p674
I1
sS'Word'
p675
I2
sS'character'
p676
I1
sS'address'
p677
I1
sS'football'
p678
I1
sS'height'
p679
I3
sS'60'
p680
I2
sS'islive'
p681
I1
sS'Subjects'
p682
I1
sS'66'
p683
I2
sS'\xd9\x81\xd8\xa7\xd8\xb1\xd8\xb3\xdb\x8c'
p684
I1
sS'Gap'
p685
I3
sS'along'
p686
I1
sS'177px'
p687
I1
sS'question'
p688
I1
sS'Khmer'
p689
I1
sS'motorbike'
p690
I1
sS'adverb'
p691
I1
sS'radiyoyacuvoacom'
p692
I2
sS'Lambert'
p693
I1
sS'come'
p694
I1
sS'Robbins'
p695
I1
sS'three'
p696
I1
sS'been'
p697
I1
sS'quiz'
p698
I2
sS'Most'
p699
I6
sS'genetic'
p700
I2
sS'California'
p701
I1
sS'Plan'
p702
I1
sS'Doctors'
p703
I2
sS'amateur'
p704
I1
sS'territory'
p705
I1
sS'Princess'
p706
I3
sS'website'
p707
I1
sS'life'
p708
I1
sS'modern'
p709
I1
sS'Center'
p710
I1
sS'CEO'
p711
I1
sS'both'
p712
I2
sS'fire'
p713
I1
sS'Elections'
p714
I1
sS'gaq'
p715
I2
sS'Sites'
p716
I1
sS'39Spectre39'
p717
I1
sS'Bahasa'
p718
I1
sS'Kuala'
p719
I1
sS'Learn'
p720
I4
sS'last'
p721
I1
sS'thing'
p722
I2
sS'Voice'
p723
I1
sS'those'
p724
I1
sS'Look'
p725
I1
sS'has'
p726
I4
sS'Stream'
p727
I1
sS'\xd0\x9c\xd0\xb0\xd0\xba\xd0\xb5\xd0\xb4\xd0\xbe\xd0\xbd\xd1\x81\xd0\xba\xd0\xb8'
p728
I1
sS'iftypeofTealiumTagFromfunction'
p729
I1
sS'Espa\xc3\xb1ol'
p730
I1
sS'voanoticiascom'
p731
I1
sS'middle'
p732
I2
sS'while'
p733
I1
sS'Oromoo'
p734
I1
sS'smart'
p735
I1
sS'country'
p736
I1
sS'Follow'
p737
I2
sS'typefacebookpopup'
p738
I1
sS'Any'
p739
I3
sS'\xd9\x88\xdb\x8c'
p740
I1
sS'have'
p741
I7
sS'khmervoanewscom'
p742
I1
sS'almost'
p743
I1
sS'Shona'
p744
I1
sS'Policy'
p745
I1
sS'Content'
p746
I1
sS'\xd0\xa0\xd1\x83\xd1\x81\xd1\x81\xd0\xba\xd0\xb8\xd0\xb9'
p747
I1
sS'continues'
p748
I1
sS'Astronaut'
p749
I1
sS'Eliminate'
p750
I3
sS'\xd8\xa7\xd8\xb1\xd8\xaf\xd9\x88'
p751
I1
sS'Mail'
p752
I1
sS'mediaId'
p753
I3
sS'You'
p754
I4
sS'controversy'
p755
I1
sS'technology'
p756
I1
sS'currents'
p757
I1
sS'tigrignavoanewscom'
p758
I1
sS'Organization'
p759
I2
sS'384px'
p760
I1
sS'terrorist'
p761
I1
sS'voadeewaradiocom'
p762
I1
sS'Around'
p763
I1
sS'Malaysia'
p764
I1
sS'things'
p765
I1
sS'Apple'
p766
I1
sS'30MB'
p767
I1
sS'CustomVariables2'
p768
I1
sS'Nation'
p769
I2
sS'zooplankton'
p770
I1
sS'Zimbabwe'
p771
I1
sS'damages'
p772
I1
sS'coworkers'
p773
I1
sS'Many'
p774
I3
sS'9'
p775
I1
sS'President'
p776
I3
sS'events'
p777
I1
sS'week'
p778
I2
sS'UTC'
p779
I3
sS'About'
p780
I1
sS'used'
p781
I2
sS'Printer'
p782
I2
sS'httpwww'
p783
I1
sS'Do'
p784
I2
sS'Launches'
p785
I1
sS'Coral'
p786
I1
sS'Twitter'
p787
I1
sS'average'
p788
I1
sS'Stunning'
p789
I1
sS'basic'
p790
I1
sS'hrefvoalearnenglish346668673559298051nameTwittertypelinkbutton'
p791
I1
sS'\xd8\xa7\xdb\x90'
p792
I1
sS'mkvoanewscom'
p793
I1
sS'360p'
p794
I2
sS'recent'
p795
I1
sS'Separable'
p796
I3
sS'lower'
p797
I1
sS'Says'
p798
I7
sS'programs'
p799
I1
sS'i'
p800
I3
sS'expression'
p801
I2
sS'bacterium'
p802
I2
sS'well'
p803
I2
sS'May'
p804
I5
sS'severe'
p805
I1
sS'hrefhttp3A2F2Flearningenglishvoanewscom2FrsspageaspxtargetcssClassshwicopangearssnametypelinkbutton'
p806
I1
sS'Have'
p807
I5
sS'very'
p808
I1
sS'wreckage'
p809
I1
sS'Saved'
p810
I1
sS'drawing'
p811
I1
sS'researchers'
p812
I2
sS'Era'
p813
I1
sS'world'
p814
I2
sS'bottom'
p815
I1
sS'bananas'
p816
I1
sS'Service'
p817
I1
sS'when'
p818
I2
sS'biodegradable'
p819
I1
sS'documentlocationprotocol'
p820
I1
sS'Plastic'
p821
I1
sS'shape'
p822
I1
sS'solarpowered'
p823
I1
sS'human'
p824
I2
sS'Internet'
p825
I2
sS'Day'
p826
I2
sS'followed'
p827
I1
sS'Emojis'
p828
I1
sS'happiness'
p829
I1
sS'previous'
p830
I2
sS'web'
p831
I2
sS'now'
p832
I2
sS'cancer'
p833
I2
sS'equipment'
p834
I1
sS'informal'
p835
I1
sS'Oscar'
p836
I1
sS'Friday'
p837
I2
sS'gaqpushnetsetAllowLinker'
p838
I1
sS'utagfrom'
p839
I1
sS'parts'
p840
I1
sS'Read'
p841
I1
sS'cub'
p842
I1
sS'Mealworms'
p843
I1
sS'Things'
p844
I1
sS'News'
p845
I10
sS'160px'
p846
I1
sS'useruploadhtmlloginhtmlsignuphtmllogouthtmlpasswordrecoveryhtmlloginaspx'
p847
I1
sS'\xd0\xa3\xd0\xba\xd1\x80\xd0\xb0\xd1\x97\xd0\xbd\xd1\x81\xd1\x8c\xd0\xba\xd0\xb0'
p848
I1
sS'app'
p849
I2
sS'httplivetrackervoanewseucounterltPageType4RecordId3056831SiteId428r693443922it0pd20151117190000url'
p850
I1
sS'real'
p851
I1
sS'tests'
p852
I1
sS'Last'
p853
I1
sS'Debates'
p854
I1
sS'government'
p855
I1
sS'Did'
p856
I2
sS'James'
p857
I1
sS'Taking'
p858
I3
sS'homepagecontenttypeSectionpubyear2012pubmonth02pubday21pubhour00pubminute00pubweekdayTuesdaysluglearningenglishhomepagesectionLearning'
p859
I1
sS'possible'
p860
I1
sS'voasomalicom'
p861
I1
sS'selflocation'
p862
I1
sS'suffering'
p863
I1
sS'historic'
p864
I1
sS'know'
p865
I1
sS'using'
p866
I1
sS'Nobel'
p867
I3
sS'mediaTitle'
p868
I3
sS'aging'
p869
I1
sS'AsiaPacific'
p870
I1
sS'packaging'
p871
I1
sS'Prabakaran'
p872
I1
sS'voatibetanenglishcom'
p873
I1
sS'teenagers'
p874
I1
sS'Bosanski'
p875
I1
sS'Discussed'
p876
I1
sS'Dr'
p877
I1
sS'51'
p878
I1
sS'50'
p879
I2
sS'toplocation'
p880
I1
sS'3057641'
p881
I1
sS'Powerquot'
p882
I1
sS'Learning'
p883
I14
sS'popular'
p884
I1
sS'burmesevoanewscom'
p885
I1
sS'homepagelongheadlineLearning'
p886
I1
sS'page'
p887
I1
sS'pashtovoacom'
p888
I1
sS'making'
p889
I1
sS'httpsssl'
p890
I1
sS'old'
p891
I3
sS'1327'
p892
I1
sS'Entertainment'
p893
I2
sS'sends'
p894
I1
sS'utagfromTealiumTagFromvar'
p895
I1
sS'some'
p896
I2
sS'back'
p897
I2
sS'\xda\x89\xd9\x8a\xd9\x88\xd9\x87'
p898
I1
sS'strongest'
p899
I1
sS'Offers'
p900
I1
sS'Cancer'
p901
I1
sS'X'
p902
I3
sS'Mars'
p903
I6
sS'Terror'
p904
I3
sS'New'
p905
I4
sS'carousel22325tinycarousel'
p906
I1
sS'quothave'
p907
I1
sS'Listen'
p908
I2
sS'4800'
p909
I2
sS'Danish'
p910
I2
sS'bdocumentcscriptdbcreateElementcdsrcadtypetextjavacdasynctrue'
p911
I1
sS'\xe2\x96\xb6'
p912
I12
sS'Cuba'
p913
I1
sS'affects'
p914
I1
sS'Killer'
p915
I2
sS'recorded'
p916
I1
sS'War'
p917
I2
sS'Southeast'
p918
I1
sS'Virus'
p919
I2
sS'does'
p920
I2
sS'luggage'
p921
I1
sS'leader'
p922
I2
sS'He'
p923
I1
sS'School'
p924
I1
sS'object'
p925
I1
sS'Lifestyle'
p926
I3
sS'1300s'
p927
I2
sS'business'
p928
I1
sS'Afaan'
p929
I1
sS'Economics'
p930
I2
sS'\xd9\xbe\xda\x9a\xd8\xaa\xd9\x88'
p931
I1
sS'Jill'
p932
I1
sS'Us'
p933
I4
sS'Burroughs'
p934
I2
sS'host'
p935
I2
sS'Monday'
p936
I1
sS'Kenya'
p937
I3
sS'Star'
p938
I1
sS'Phrasal'
p939
I4
sS'Russia'
p940
I3
sS'stage'
p941
I1
sS'Comment'
p942
I15
sS'Thought'
p943
I3
sS'about'
p944
I4
sS'Latinos'
p945
I1
sS'VOA'
p946
I8
sS'anything'
p947
I1
sS'coral'
p948
I2
sS'Get'
p949
I2
sS'powered'
p950
I1
sS'US'
p951
I6
sS'Find'
p952
I2
sS'Women39s'
p953
I2
sS'her'
p954
I6
sS'Viruses'
p955
I3
sS'dengiamerikacom'
p956
I1
sS'Mobile'
p957
I3
sS'mean'
p958
I1
sS'livetrackImageUrl'
p959
I3
sS'road'
p960
I1
sS'pubYear'
p961
I3
sS'Use'
p962
I1
sS'WHO'
p963
I1
sS'Blacks'
p964
I1
sS'DomainSpecification2'
p965
I1
sS'year'
p966
I1
sS'Two'
p967
I2
sS'transport\xe2\x80\x9d'
p968
I1
sS'11172015'
p969
I1
sS'O\xe2\x80\x98zbek'
p970
I1
sS'FREE'
p971
I1
sS'Lumpur'
p972
I1
sS'Introvert'
p973
I4
sS'gaasync'
p974
I1
sS'voakoreacom'
p975
I1
sS'15yearold'
p976
I1
sS'Latino'
p977
I2
sS'Creole'
p978
I1
sS'your'
p979
I3
sS'often'
p980
I2
sS'surround'
p981
I1
sS'pagertrue'
p982
I1
sS'prepare'
p983
I1
sS'spending'
p984
I1
sS'people'
p985
I4
sS'larval'
p986
I1
sS'width'
p987
I3
sS'structure'
p988
I2
sS'Kiswahili'
p989
I1
sS'var'
p990
I8
sS'quirky'
p991
I1
sS'November'
p992
I4
sS'Bond'
p993
I1
sS'patients'
p994
I1
sS'urduvoacom'
p995
I1
sS'function'
p996
I1
sS'Animals'
p997
I1
sS'form'
p998
I2
sS'Science'
p999
I7
sS'vehicle'
p1000
I2
sS'Html5Player'
p1001
I3
sS'hrefhttp3A2F2Fwwwlinkedincom2Fpub2Fvoalearningenglish2F402F5452F130targetblankcssClassshwicolinkedinnametypelinkbutton'
p1002
I1
sS'plague'
p1003
I2
sS'newer'
p1004
I1
sS'Deaton'
p1005
I1
sS'Jean'
p1006
I1
sS'true'
p1007
I12
sS'3month'
p1008
I1
sS'voazimbabwecom'
p1009
I1
sS'made'
p1010
I1
sS'100MB'
p1011
I1
sS'streaming'
p1012
I1
sS'inside'
p1013
I1
sS'1800'
p1014
I1
sS'Africa'
p1015
I2
sS'devices'
p1016
I1
sS'Sunscreen'
p1017
I1
sS'record'
p1018
I1
sS'below'
p1019
I1
sS'Much'
p1020
I3
sS'stories'
p1021
I1
sS'Lewis'
p1022
I2
sS'Nohemi'
p1023
I1
sS'Enrique'
p1024
I1
sS'panels'
p1025
I1
sS'landscapes'
p1026
I1
sS'called'
p1027
I2
sS'detailed'
p1028
I1
sS'brightly'
p1029
I1
sS'his'
p1030
I2
sS'50MB'
p1031
I1
sS'expedition'
p1032
I3
sS'Personal'
p1033
I1
sS'Tales'
p1034
I1
sS'measure'
p1035
I1
sS'\xe1\x89\xb5\xe1\x8c\x8d\xe1\x88\xad\xe1\x8a\x9b'
p1036
I1
sS'Swetha'
p1037
I1
sS'an'
p1038
I7
sS'How'
p1039
I2
sS'female'
p1040
I1
sS'Three'
p1041
I2
sS'pangeaSocialIcons'
p1042
I1
sS'Long'
p1043
I1
sS'processed'
p1044
I1
sS'looked'
p1045
I1
sS'Jonathan'
p1046
I1
sS'Trace'
p1047
I1
sS'39Act'
p1048
I1
sS'TV'
p1049
I3
sS'way'
p1050
I1
sS'Princeton'
p1051
I1
sS'percent'
p1052
I2
sS'idiom'
p1053
I1
sS'hrefhttp3A2F2Flearningenglishvoanewscom2FsubscribeaspxtargetcssClassshwicopangeasubscribename'
p1054
I1
sS'other'
p1055
I4
sS'5'
p1056
I1
sS'Student'
p1057
I3
sS'you'
p1058
I6
sS'More'
p1059
I9
sS'00000'
p1060
I3
sS'\xe4\xb8\xad\xe6\x96\x87'
p1061
I1
sS'students'
p1062
I7
sS'Gender'
p1063
I3
sS'Route'
p1064
I2
sS'time'
p1065
I3
sS'problems'
p1066
I1
sS'Life'
p1067
I1
sS'resign'
p1068
I1
sS'homepageenglishsectionlearningenglishhomepage'
p1069
I1
sS'chance'
p1070
I1
sS'Future'
p1071
I1
sS'Rule'
p1072
I1
sS'Act'
p1073
I2
sS'included'
p1074
I1
sS'Making'
p1075
I2
sS'Record'
p1076
I1
sS'Audio'
p1077
I5
sS'friends'
p1078
I2
sS'South'
p1079
I2
sS'opened'
p1080
I1
sS'ago'
p1081
I2
sS'Obama'
p1082
I1
sS'3037016'
p1083
I1
sS'amp'
p1084
I5
sS'Soomaaliga'
p1085
I1
sS'Win'
p1086
I1
sS'interval'
p1087
I2
sS'wellbeing'
p1088
I1
sS'memorial'
p1089
I1
sS'rule'
p1090
I2
sS'Brought'
p1091
I2
sS'Brain'
p1092
I1
sS'3056831'
p1093
I1
sS'Asian'
p1094
I2
sS'teeth'
p1095
I2
sS'irvoanewscom'
p1096
I1
sS'10MB'
p1097
I2
sS'Processed'
p1098
I1
s.